target datalayout = "e-m:e-p270:32:32-p271:32:32-p272:64:64-i64:64-i128:128-f80:128-n8:16:32:64-S128"
target triple = "x86_64-pc-linux-gnu"

%class.LibRaw = type { ptr, %struct.libraw_data_t, ptr, %struct.libraw_internal_data_t, [2048 x %struct.decode], ptr, ptr, [10 x %struct.tiff_ifd_t], %class.libraw_memmgr, %struct.libraw_callbacks_t, { i64, i64 }, { i64, i64 }, { i64, i64 }, ptr, ptr, ptr, i64, ptr, ptr, ptr, ptr }
%struct.libraw_data_t = type { ptr, %struct.libraw_image_sizes_t, %struct.libraw_iparams_t, %struct.libraw_lensinfo_t, %struct.libraw_makernotes_t, %struct.libraw_shootinginfo_t, %struct.libraw_output_params_t, %struct.libraw_raw_unpack_params_t, i32, i32, %struct.libraw_colordata_t, %struct.libraw_imgother_t, %struct.libraw_thumbnail_t, %struct.libraw_thumbnail_list_t, %struct.libraw_rawdata_t, ptr }
%struct.libraw_image_sizes_t = type { i16, i16, i16, i16, i16, i16, i16, i16, i32, double, i32, [8 x [4 x i32]], i16, [2 x %struct.libraw_raw_inset_crop_t] }
%struct.libraw_raw_inset_crop_t = type { i16, i16, i16, i16 }
%struct.libraw_iparams_t = type { [4 x i8], [64 x i8], [64 x i8], [64 x i8], [64 x i8], [64 x i8], i32, i32, i32, i32, i32, i32, [6 x [6 x i8]], [6 x [6 x i8]], [5 x i8], i32, ptr }
%struct.libraw_lensinfo_t = type { float, float, float, float, float, [128 x i8], [128 x i8], [128 x i8], [128 x i8], i16, %struct.libraw_nikonlens_t, %struct.libraw_dnglens_t, %struct.libraw_makernotes_lens_t }
%struct.libraw_nikonlens_t = type { float, i8, i8, i8, i8 }
%struct.libraw_dnglens_t = type { float, float, float, float }
%struct.libraw_makernotes_lens_t = type { i64, [128 x i8], i16, i16, i64, i16, i16, [64 x i8], i16, [16 x i8], [16 x i8], float, float, float, float, float, float, float, float, float, float, float, float, float, float, float, i64, [128 x i8], i64, [128 x i8], i64, [128 x i8], i16, float }
%struct.libraw_makernotes_t = type { %struct.libraw_canon_makernotes_t, %struct.libraw_nikon_makernotes_t, %struct.libraw_hasselblad_makernotes_t, %struct.libraw_fuji_info_t, %struct.libraw_olympus_makernotes_t, %struct.libraw_sony_info_t, %struct.libraw_kodak_makernotes_t, %struct.libraw_panasonic_makernotes_t, %struct.libraw_pentax_makernotes_t, %struct.libraw_p1_makernotes_t, %struct.libraw_ricoh_makernotes_t, %struct.libraw_samsung_makernotes_t, %struct.libraw_metadata_common_t }
%struct.libraw_canon_makernotes_t = type { i32, i32, i32, i32, [4 x i32], i32, [4 x i32], i16, i16, i8, i16, i16, i16, i16, i16, i16, i16, i16, i16, i16, i16, i16, i16, i32, float, i16, i16, i16, i32, i16, i32, i32, i16, i32, %struct.libraw_area_t, %struct.libraw_area_t, %struct.libraw_area_t, %struct.libraw_area_t, %struct.libraw_area_t, [2 x i16] }
%struct.libraw_area_t = type { i16, i16, i16, i16 }
%struct.libraw_nikon_makernotes_t = type { double, i16, i16, [7 x i8], i8, i8, [13 x i8], [20 x i8], [4 x i8], [4 x i8], [4 x i8], i8, i8, i8, i8, i8, [2 x i8], i8, i8, i8, i8, i8, [4 x i8], [4 x i8], i8, i16, i32, i32, i32, i32, [4 x double], i8, i8, i8, i32, i32, i32, i8, [4 x i16], i16, %struct.libraw_sensor_highspeed_crop_t, i16, i16, i16, i32, [20 x i8], [20 x i8], i32, i16, double, double, double }
%struct.libraw_sensor_highspeed_crop_t = type { i16, i16, i16, i16 }
%struct.libraw_hasselblad_makernotes_t = type { i32, double, [8 x i8], [64 x i8], [64 x i8], i32, i32, i32, i32, [32 x i8], [64 x i8], i32, [2 x i32], [2 x i32], [4 x [3 x double]] }
%struct.libraw_fuji_info_t = type { float, i16, i16, i16, i16, i16, i16, i16, i16, [33 x i8], [33 x i8], float, i16, i16, [2 x i16], i16, i32, i32, i16, [3 x i16], i16, i16, i16, i16, i16, i32, i16, [13 x i8], [5 x i8], [5 x i8], i32, i16, i32, i16, [9 x i16], [32 x i32], i32, i32, i32, [2 x float], i32 }
%struct.libraw_olympus_makernotes_t = type { [6 x i8], i16, [2 x i32], [5 x i16], i16, [2 x i16], i16, i16, [64 x i32], [5 x double], i16, i8, [3 x i16], [3 x i32], i16, i16, i16, i16, double, [4 x i16], [2 x i32], i8, i32, i16, i16 }
%struct.libraw_sony_info_t = type { i16, i8, i8, i32, i8, i32, i8, i8, i16, [2 x i16], i8, i8, i16, [10 x i8], i8, i8, [4 x i16], i16, i8, i8, i8, i16, i32, i16, [2 x i16], i16, i16, i16, i16, i16, i16, i16, i32, float, i16, i32, i32, i16, [20 x i8], i32, i16, i32, i8, i8, i16, i16, i16, i16, i16, i16, i16, i16, i16, i32, i16, [16 x i8], float }
%struct.libraw_kodak_makernotes_t = type { i16, i16, i16, i16, i16, i16, [3 x [3 x float]], [3 x [3 x float]], [3 x [3 x float]], [3 x [3 x float]], [3 x [3 x float]], [3 x [3 x float]], i16, i16, i16, i16, float, float }
%struct.libraw_panasonic_makernotes_t = type { i16, i16, [8 x float], i32, float, [3 x i32], i16, i16, i32, i32 }
%struct.libraw_pentax_makernotes_t = type { [4 x i8], [2 x i16], [2 x i16], i16, i32, i32, i16, i16, i8, i8, i16 }
%struct.libraw_p1_makernotes_t = type { [64 x i8], [64 x i8], [256 x i8], [64 x i8] }
%struct.libraw_ricoh_makernotes_t = type { i16, [2 x i32], [2 x i32], i16, i32, i32, i32, i32, i16, i16, i16, i16, i16, i16, double, double }
%struct.libraw_samsung_makernotes_t = type { [4 x i32], [4 x i32], [2 x i32], [11 x i32], double, i32, [32 x i8] }
%struct.libraw_metadata_common_t = type { float, float, float, float, float, float, float, float, float, float, float, float, float, float, float, float, i16, [128 x i8], float, [4 x %struct.libraw_afinfo_item_t], i32 }
%struct.libraw_afinfo_item_t = type { i32, i16, i32, i32, ptr }
%struct.libraw_shootinginfo_t = type { i16, i16, i16, i16, i16, i16, i16, [64 x i8], [64 x i8] }
%struct.libraw_output_params_t = type { [4 x i32], [4 x i32], [4 x double], [6 x double], [4 x float], float, float, i32, i32, i32, i32, i32, i32, i32, ptr, ptr, ptr, ptr, i32, i32, i32, i32, i32, i32, [4 x i32], i32, i32, float, float, i32, i32, i32, i32, i32, i32, i32, i32, float, float, i32, i32 }
%struct.libraw_raw_unpack_params_t = type { i32, i32, i32, i32, i32, i32, i32, float, [5 x i8], ptr }
%struct.libraw_colordata_t = type { [65536 x i16], [4104 x i32], i32, i32, i32, [4 x i64], float, float, [8 x [8 x i16]], [4 x float], [4 x float], [3 x [4 x float]], [3 x [4 x float]], [3 x [4 x float]], [4 x [3 x float]], %struct.ph1_t, float, float, [64 x i8], [64 x i8], [64 x i8], [64 x i8], [17 x i8], [64 x i8], ptr, i32, [8 x i32], [2 x %struct.libraw_dng_color_t], %struct.libraw_dng_levels_t, [256 x [4 x i32]], [64 x [5 x float]], i32, [2 x %struct.libraw_P1_color_t], i32, i32 }
%struct.ph1_t = type { i32, i32, i32, i32, i32, i32, i32, i32, float }
%struct.libraw_dng_color_t = type { i32, i16, [4 x [4 x float]], [4 x [3 x float]], [3 x [4 x float]] }
%struct.libraw_dng_levels_t = type { i32, [4104 x i32], i32, [4104 x float], float, [4 x i32], [4 x i16], [4 x float], i32, [4 x float], [4 x float], float, float }
%struct.libraw_P1_color_t = type { [9 x float] }
%struct.libraw_imgother_t = type { float, float, float, float, i64, i32, [32 x i32], %struct.libraw_gps_info_t, [512 x i8], [64 x i8], [4 x float] }
%struct.libraw_gps_info_t = type { [3 x float], [3 x float], [3 x float], float, i8, i8, i8, i8, i8 }
%struct.libraw_thumbnail_t = type { i32, i16, i16, i32, i32, ptr }
%struct.libraw_thumbnail_list_t = type { i32, [8 x %struct.libraw_thumbnail_item_t] }
%struct.libraw_thumbnail_item_t = type { i32, i16, i16, i16, i32, i32, i64 }
%struct.libraw_rawdata_t = type { ptr, ptr, ptr, ptr, ptr, ptr, ptr, ptr, ptr, %struct.libraw_iparams_t, %struct.libraw_image_sizes_t, %struct.libraw_internal_output_params_t, %struct.libraw_colordata_t }
%struct.libraw_internal_output_params_t = type { i32, i32, i32, i16, i16 }
%struct.libraw_internal_data_t = type { %struct.internal_data_t, %struct.libraw_internal_output_params_t, %struct.output_data_t, %struct.identify_data_t, %struct.unpacker_data_t }
%struct.internal_data_t = type { ptr, ptr, i32, ptr, i64, i64, [4 x i32] }
%struct.output_data_t = type { ptr, ptr }
%struct.identify_data_t = type { i32, i64, i64, i32, i32, i32 }
%struct.unpacker_data_t = type { i16, [4 x i16], [3 x i16], i32, i64, i64, i64, i64, i64, i64, i32, i32, i32, i32, i32, i32, i32, i32, i32, i32, i32, i32, i32, i32, i32, i32, i32, i64, i32, i32, i32, i32, i32, i32, i32, i32, i32, %struct.pana8_tags_t, [16 x %struct.crx_data_header_t], i32, i32, i16, i16, i32, i32, i32, i32, i32, i32, i32, [20 x i32], i16 }
%struct.pana8_tags_t = type { [6 x i32], [6 x i16], i16, [4 x i16], [17 x i16], [17 x i16], [17 x i16], i16, i16, [5 x i64], [5 x i16], [5 x i32], [5 x i16], [5 x i16] }
%struct.crx_data_header_t = type { i32, i32, i32, i32, i32, i32, i32, i32, i32, i32, i32, i32, i32, i32, i32, i64, i32, ptr, i32, i32, i32, ptr, i32, ptr }
%struct.decode = type { [2 x ptr], i32 }
%struct.tiff_ifd_t = type { i32, i32, i32, i32, i32, i32, i32, i32, i32, i32, i32, i32, i32, i32, i32, ptr, i32, ptr, i32, i32, i32, i32, i32, i32, i32, float, i64, i64, i32, [2 x %struct.libraw_dng_color_t], %struct.libraw_dng_levels_t, i32 }
%class.libraw_memmgr = type <{ ptr, i32, [4 x i8] }>
%struct.libraw_callbacks_t = type { ptr, ptr, ptr, ptr, ptr, ptr, ptr, ptr, ptr, ptr, ptr, ptr, ptr, ptr, ptr, ptr, ptr }

; Function Attrs: mustprogress uwtable
define void @_ZN6LibRaw10copy_bayerEPtS0_(ptr noundef nonnull align 8 dereferenceable(767680) %0, ptr noundef %1, ptr noundef %2) unnamed_addr #3 align 2 {
  %4 = alloca ptr, align 8
  %5 = alloca ptr, align 8
  %6 = alloca ptr, align 8
  %7 = alloca i32, align 4
  %8 = alloca i32, align 4
  %9 = alloca i32, align 4
  %10 = alloca i16, align 2
  %11 = alloca i16, align 2
  %12 = alloca i32, align 4
  store ptr %0, ptr %4, align 8, !tbaa !6
  store ptr %1, ptr %5, align 8, !tbaa !115
  store ptr %2, ptr %6, align 8, !tbaa !115
  %13 = load ptr, ptr %4, align 8
  call void @llvm.lifetime.start.p0(i64 4, ptr %7) #9
  %14 = getelementptr inbounds nuw %class.LibRaw, ptr %13, i32 0, i32 1
  %15 = getelementptr inbounds nuw %struct.libraw_data_t, ptr %14, i32 0, i32 1
  %16 = getelementptr inbounds nuw %struct.libraw_image_sizes_t, ptr %15, i32 0, i32 2
  %17 = load i16, ptr %16, align 4, !tbaa !86
  %18 = zext i16 %17 to i32
  %19 = getelementptr inbounds nuw %class.LibRaw, ptr %13, i32 0, i32 1
  %20 = getelementptr inbounds nuw %struct.libraw_data_t, ptr %19, i32 0, i32 1
  %21 = getelementptr inbounds nuw %struct.libraw_image_sizes_t, ptr %20, i32 0, i32 0
  %22 = load i16, ptr %21, align 8, !tbaa !100
  %23 = zext i16 %22 to i32
  %24 = getelementptr inbounds nuw %class.LibRaw, ptr %13, i32 0, i32 1
  %25 = getelementptr inbounds nuw %struct.libraw_data_t, ptr %24, i32 0, i32 1
  %26 = getelementptr inbounds nuw %struct.libraw_image_sizes_t, ptr %25, i32 0, i32 4
  %27 = load i16, ptr %26, align 8, !tbaa !101
  %28 = zext i16 %27 to i32
  %29 = sub nsw i32 %23, %28
  %30 = icmp slt i32 %18, %29
  br i1 %30, label %31, label %37

31:                                               ; preds = %3
  %32 = getelementptr inbounds nuw %class.LibRaw, ptr %13, i32 0, i32 1
  %33 = getelementptr inbounds nuw %struct.libraw_data_t, ptr %32, i32 0, i32 1
  %34 = getelementptr inbounds nuw %struct.libraw_image_sizes_t, ptr %33, i32 0, i32 2
  %35 = load i16, ptr %34, align 4, !tbaa !86
  %36 = zext i16 %35 to i32
  br label %49

37:                                               ; preds = %3
  %38 = getelementptr inbounds nuw %class.LibRaw, ptr %13, i32 0, i32 1
  %39 = getelementptr inbounds nuw %struct.libraw_data_t, ptr %38, i32 0, i32 1
  %40 = getelementptr inbounds nuw %struct.libraw_image_sizes_t, ptr %39, i32 0, i32 0
  %41 = load i16, ptr %40, align 8, !tbaa !100
  %42 = zext i16 %41 to i32
  %43 = getelementptr inbounds nuw %class.LibRaw, ptr %13, i32 0, i32 1
  %44 = getelementptr inbounds nuw %struct.libraw_data_t, ptr %43, i32 0, i32 1
  %45 = getelementptr inbounds nuw %struct.libraw_image_sizes_t, ptr %44, i32 0, i32 4
  %46 = load i16, ptr %45, align 8, !tbaa !101
  %47 = zext i16 %46 to i32
  %48 = sub nsw i32 %42, %47
  br label %49

49:                                               ; preds = %37, %31
  %50 = phi i32 [ %36, %31 ], [ %48, %37 ]
  store i32 %50, ptr %7, align 4, !tbaa !74
  call void @llvm.lifetime.start.p0(i64 4, ptr %8) #9
  store i32 0, ptr %8, align 4, !tbaa !74
  br label %51

51:                                               ; preds = %187, %49
  %52 = load i32, ptr %8, align 4, !tbaa !74
  %53 = load i32, ptr %7, align 4, !tbaa !74
  %54 = icmp slt i32 %52, %53
  br i1 %54, label %56, label %55

55:                                               ; preds = %51
  call void @llvm.lifetime.end.p0(i64 4, ptr %8) #9
  br label %190

56:                                               ; preds = %51
  call void @llvm.lifetime.start.p0(i64 4, ptr %9) #9
  call void @llvm.lifetime.start.p0(i64 2, ptr %10) #9
  store i16 0, ptr %10, align 2, !tbaa !108
  store i32 0, ptr %9, align 4, !tbaa !74
  br label %57

57:                                               ; preds = %173, %56
  %58 = load i32, ptr %9, align 4, !tbaa !74
  %59 = getelementptr inbounds nuw %class.LibRaw, ptr %13, i32 0, i32 1
  %60 = getelementptr inbounds nuw %struct.libraw_data_t, ptr %59, i32 0, i32 1
  %61 = getelementptr inbounds nuw %struct.libraw_image_sizes_t, ptr %60, i32 0, i32 3
  %62 = load i16, ptr %61, align 2, !tbaa !88
  %63 = zext i16 %62 to i32
  %64 = icmp slt i32 %58, %63
  br i1 %64, label %65, label %79

65:                                               ; preds = %57
  %66 = load i32, ptr %9, align 4, !tbaa !74
  %67 = getelementptr inbounds nuw %class.LibRaw, ptr %13, i32 0, i32 1
  %68 = getelementptr inbounds nuw %struct.libraw_data_t, ptr %67, i32 0, i32 1
  %69 = getelementptr inbounds nuw %struct.libraw_image_sizes_t, ptr %68, i32 0, i32 5
  %70 = load i16, ptr %69, align 2, !tbaa !103
  %71 = zext i16 %70 to i32
  %72 = add nsw i32 %66, %71
  %73 = getelementptr inbounds nuw %class.LibRaw, ptr %13, i32 0, i32 1
  %74 = getelementptr inbounds nuw %struct.libraw_data_t, ptr %73, i32 0, i32 1
  %75 = getelementptr inbounds nuw %struct.libraw_image_sizes_t, ptr %74, i32 0, i32 1
  %76 = load i16, ptr %75, align 2, !tbaa !102
  %77 = zext i16 %76 to i32
  %78 = icmp slt i32 %72, %77
  br label %79

79:                                               ; preds = %65, %57
  %80 = phi i1 [ false, %57 ], [ %78, %65 ]
  br i1 %80, label %81, label %176

81:                                               ; preds = %79
  call void @llvm.lifetime.start.p0(i64 2, ptr %11) #9
  %82 = getelementptr inbounds nuw %class.LibRaw, ptr %13, i32 0, i32 1
  %83 = getelementptr inbounds nuw %struct.libraw_data_t, ptr %82, i32 0, i32 14
  %84 = getelementptr inbounds nuw %struct.libraw_rawdata_t, ptr %83, i32 0, i32 1
  %85 = load ptr, ptr %84, align 8, !tbaa !97
  %86 = load i32, ptr %8, align 4, !tbaa !74
  %87 = getelementptr inbounds nuw %class.LibRaw, ptr %13, i32 0, i32 1
  %88 = getelementptr inbounds nuw %struct.libraw_data_t, ptr %87, i32 0, i32 1
  %89 = getelementptr inbounds nuw %struct.libraw_image_sizes_t, ptr %88, i32 0, i32 4
  %90 = load i16, ptr %89, align 8, !tbaa !101
  %91 = zext i16 %90 to i32
  %92 = add nsw i32 %86, %91
  %93 = getelementptr inbounds nuw %class.LibRaw, ptr %13, i32 0, i32 1
  %94 = getelementptr inbounds nuw %struct.libraw_data_t, ptr %93, i32 0, i32 1
  %95 = getelementptr inbounds nuw %struct.libraw_image_sizes_t, ptr %94, i32 0, i32 8
  %96 = load i32, ptr %95, align 8, !tbaa !107
  %97 = mul i32 %92, %96
  %98 = udiv i32 %97, 2
  %99 = load i32, ptr %9, align 4, !tbaa !74
  %100 = getelementptr inbounds nuw %class.LibRaw, ptr %13, i32 0, i32 1
  %101 = getelementptr inbounds nuw %struct.libraw_data_t, ptr %100, i32 0, i32 1
  %102 = getelementptr inbounds nuw %struct.libraw_image_sizes_t, ptr %101, i32 0, i32 5
  %103 = load i16, ptr %102, align 2, !tbaa !103
  %104 = zext i16 %103 to i32
  %105 = add nsw i32 %99, %104
  %106 = add i32 %98, %105
  %107 = zext i32 %106 to i64
  %108 = getelementptr inbounds nuw i16, ptr %85, i64 %107
  %109 = load i16, ptr %108, align 2, !tbaa !108
  store i16 %109, ptr %11, align 2, !tbaa !108
  call void @llvm.lifetime.start.p0(i64 4, ptr %12) #9
  %110 = load i32, ptr %8, align 4, !tbaa !74
  %111 = load i32, ptr %9, align 4, !tbaa !74
  %112 = call noundef i32 @_ZN6LibRaw4fcolEii(ptr noundef nonnull align 8 dereferenceable(767680) %13, i32 noundef %110, i32 noundef %111)
  store i32 %112, ptr %12, align 4, !tbaa !74
  %113 = load i16, ptr %11, align 2, !tbaa !108
  %114 = zext i16 %113 to i32
  %115 = load ptr, ptr %5, align 8, !tbaa !115
  %116 = load i32, ptr %12, align 4, !tbaa !74
  %117 = sext i32 %116 to i64
  %118 = getelementptr inbounds i16, ptr %115, i64 %117
  %119 = load i16, ptr %118, align 2, !tbaa !108
  %120 = zext i16 %119 to i32
  %121 = icmp sgt i32 %114, %120
  br i1 %121, label %122, label %141

122:                                              ; preds = %81
  %123 = load ptr, ptr %5, align 8, !tbaa !115
  %124 = load i32, ptr %12, align 4, !tbaa !74
  %125 = sext i32 %124 to i64
  %126 = getelementptr inbounds i16, ptr %123, i64 %125
  %127 = load i16, ptr %126, align 2, !tbaa !108
  %128 = zext i16 %127 to i32
  %129 = load i16, ptr %11, align 2, !tbaa !108
  %130 = zext i16 %129 to i32
  %131 = sub nsw i32 %130, %128
  %132 = trunc i32 %131 to i16
  store i16 %132, ptr %11, align 2, !tbaa !108
  %133 = load i16, ptr %11, align 2, !tbaa !108
  %134 = zext i16 %133 to i32
  %135 = load i16, ptr %10, align 2, !tbaa !108
  %136 = zext i16 %135 to i32
  %137 = icmp sgt i32 %134, %136
  br i1 %137, label %138, label %140

138:                                              ; preds = %122
  %139 = load i16, ptr %11, align 2, !tbaa !108
  store i16 %139, ptr %10, align 2, !tbaa !108
  br label %140

140:                                              ; preds = %138, %122
  br label %142

141:                                              ; preds = %81
  store i16 0, ptr %11, align 2, !tbaa !108
  br label %142

142:                                              ; preds = %141, %140
  %143 = load i16, ptr %11, align 2, !tbaa !108
  %144 = getelementptr inbounds nuw %class.LibRaw, ptr %13, i32 0, i32 1
  %145 = getelementptr inbounds nuw %struct.libraw_data_t, ptr %144, i32 0, i32 0
  %146 = load ptr, ptr %145, align 8, !tbaa !99
  %147 = load i32, ptr %8, align 4, !tbaa !74
  %148 = getelementptr inbounds nuw %class.LibRaw, ptr %13, i32 0, i32 3
  %149 = getelementptr inbounds nuw %struct.libraw_internal_data_t, ptr %148, i32 0, i32 1
  %150 = getelementptr inbounds nuw %struct.libraw_internal_output_params_t, ptr %149, i32 0, i32 3
  %151 = load i16, ptr %150, align 4, !tbaa !85
  %152 = zext i16 %151 to i32
  %153 = ashr i32 %147, %152
  %154 = getelementptr inbounds nuw %class.LibRaw, ptr %13, i32 0, i32 1
  %155 = getelementptr inbounds nuw %struct.libraw_data_t, ptr %154, i32 0, i32 1
  %156 = getelementptr inbounds nuw %struct.libraw_image_sizes_t, ptr %155, i32 0, i32 7
  %157 = load i16, ptr %156, align 2, !tbaa !89
  %158 = zext i16 %157 to i32
  %159 = mul nsw i32 %153, %158
  %160 = load i32, ptr %9, align 4, !tbaa !74
  %161 = getelementptr inbounds nuw %class.LibRaw, ptr %13, i32 0, i32 3
  %162 = getelementptr inbounds nuw %struct.libraw_internal_data_t, ptr %161, i32 0, i32 1
  %163 = getelementptr inbounds nuw %struct.libraw_internal_output_params_t, ptr %162, i32 0, i32 3
  %164 = load i16, ptr %163, align 4, !tbaa !85
  %165 = zext i16 %164 to i32
  %166 = ashr i32 %160, %165
  %167 = add nsw i32 %159, %166
  %168 = sext i32 %167 to i64
  %169 = getelementptr inbounds [4 x i16], ptr %146, i64 %168
  %170 = load i32, ptr %12, align 4, !tbaa !74
  %171 = sext i32 %170 to i64
  %172 = getelementptr inbounds [4 x i16], ptr %169, i64 0, i64 %171
  store i16 %143, ptr %172, align 2, !tbaa !108
  call void @llvm.lifetime.end.p0(i64 4, ptr %12) #9
  call void @llvm.lifetime.end.p0(i64 2, ptr %11) #9
  br label %173

173:                                              ; preds = %142
  %174 = load i32, ptr %9, align 4, !tbaa !74
  %175 = add nsw i32 %174, 1
  store i32 %175, ptr %9, align 4, !tbaa !74
  br label %57, !llvm.loop !127

176:                                              ; preds = %79
  %177 = load ptr, ptr %6, align 8, !tbaa !115
  %178 = load i16, ptr %177, align 2, !tbaa !108
  %179 = zext i16 %178 to i32
  %180 = load i16, ptr %10, align 2, !tbaa !108
  %181 = zext i16 %180 to i32
  %182 = icmp slt i32 %179, %181
  br i1 %182, label %183, label %186

183:                                              ; preds = %176
  %184 = load i16, ptr %10, align 2, !tbaa !108
  %185 = load ptr, ptr %6, align 8, !tbaa !115
  store i16 %184, ptr %185, align 2, !tbaa !108
  br label %186

186:                                              ; preds = %183, %176
  call void @llvm.lifetime.end.p0(i64 2, ptr %10) #9
  call void @llvm.lifetime.end.p0(i64 4, ptr %9) #9
  br label %187

187:                                              ; preds = %186
  %188 = load i32, ptr %8, align 4, !tbaa !74
  %189 = add nsw i32 %188, 1
  store i32 %189, ptr %8, align 4, !tbaa !74
  br label %51, !llvm.loop !128

190:                                              ; preds = %55
  call void @llvm.lifetime.end.p0(i64 4, ptr %7) #9
  ret void
}