; Function Attrs: mustprogress uwtable
define void @_ZN6LibRaw10copy_bayerEPtS0_(ptr noundef nonnull align 8 dereferenceable(767680) %0, ptr noundef readonly captures(none) %1, ptr noundef captures(none) %2) unnamed_addr #3 align 2 {
  %4 = getelementptr inbounds nuw i8, ptr %0, i64 8
  %5 = getelementptr inbounds nuw i8, ptr %0, i64 16
  %6 = getelementptr inbounds nuw i8, ptr %0, i64 20
  %7 = load i16, ptr %6, align 4, !tbaa !78
  %8 = zext i16 %7 to i32
  %9 = load i16, ptr %5, align 8, !tbaa !91
  %10 = zext i16 %9 to i32
  %11 = getelementptr inbounds nuw i8, ptr %0, i64 24
  %12 = load i16, ptr %11, align 8, !tbaa !92
  %13 = zext i16 %12 to i32
  %14 = sub nsw i32 %10, %13
  %. = tail call i32 @llvm.smin.i32(i32 %14, i32 %8)
  %15 = icmp sgt i32 %., 0
  br i1 %15, label %.preheader.lr.ph, label %._crit_edge

.preheader.lr.ph:                                 ; preds = %3
  %16 = getelementptr inbounds nuw i8, ptr %0, i64 26
  %17 = getelementptr inbounds nuw i8, ptr %0, i64 22
  %18 = getelementptr inbounds nuw i8, ptr %0, i64 18
  %19 = getelementptr inbounds nuw i8, ptr %0, i64 193648
  %20 = getelementptr inbounds nuw i8, ptr %0, i64 32
  %21 = getelementptr inbounds nuw i8, ptr %0, i64 381492
  %22 = getelementptr inbounds nuw i8, ptr %0, i64 30
  br label %.preheader

.preheader:                                       ; preds = %.preheader.lr.ph, %.critedge.thread
  %.039 = phi i32 [ 0, %.preheader.lr.ph ], [ %65, %.critedge.thread ]
  %23 = load i16, ptr %17, align 2, !tbaa !80
  %.not = icmp eq i16 %23, 0
  br i1 %.not, label %.critedge.thread, label %.lr.ph

._crit_edge:                                      ; preds = %.critedge.thread, %3
  ret void

.lr.ph:                                           ; preds = %.preheader, %30
  %.02836 = phi i16 [ %.1, %30 ], [ 0, %.preheader ]
  %.02935 = phi i32 [ %58, %30 ], [ 0, %.preheader ]
  %24 = load i16, ptr %16, align 2, !tbaa !94
  %25 = zext i16 %24 to i32
  %26 = add nuw nsw i32 %.02935, %25
  %27 = load i16, ptr %18, align 2, !tbaa !93
  %28 = zext i16 %27 to i32
  %29 = icmp samesign ult i32 %26, %28
  br i1 %29, label %30, label %.critedge

30:                                               ; preds = %.lr.ph
  %31 = load ptr, ptr %19, align 8, !tbaa !87
  %32 = load i16, ptr %11, align 8, !tbaa !92
  %33 = zext i16 %32 to i32
  %34 = add nuw nsw i32 %.039, %33
  %35 = load i32, ptr %20, align 8, !tbaa !100
  %36 = mul i32 %34, %35
  %37 = lshr i32 %36, 1
  %38 = add nuw i32 %37, %26
  %39 = zext i32 %38 to i64
  %40 = getelementptr inbounds nuw i16, ptr %31, i64 %39
  %41 = load i16, ptr %40, align 2, !tbaa !98
  %42 = tail call noundef i32 @_ZN6LibRaw4fcolEii(ptr noundef nonnull align 8 dereferenceable(767680) %0, i32 noundef %.039, i32 noundef %.02935)
  %43 = sext i32 %42 to i64
  %44 = getelementptr inbounds i16, ptr %1, i64 %43
  %45 = load i16, ptr %44, align 2, !tbaa !98
  %46 = icmp ugt i16 %41, %45
  %narrow = sub nuw i16 %41, %45
  %spec.select = tail call i16 @llvm.umax.i16(i16 %narrow, i16 %.02836)
  %.1 = select i1 %46, i16 %spec.select, i16 %.02836
  %.027 = tail call i16 @llvm.usub.sat.i16(i16 %41, i16 %45)
  %47 = load ptr, ptr %4, align 8, !tbaa !90
  %48 = load i16, ptr %21, align 4, !tbaa !77
  %49 = zext i16 %48 to i32
  %50 = lshr i32 %.039, %49
  %51 = load i16, ptr %22, align 2, !tbaa !81
  %52 = zext i16 %51 to i32
  %53 = mul nuw nsw i32 %50, %52
  %54 = lshr i32 %.02935, %49
  %55 = add nuw nsw i32 %53, %54
  %56 = zext nneg i32 %55 to i64
  %57 = getelementptr inbounds [4 x i16], ptr %47, i64 %56, i64 %43
  store i16 %.027, ptr %57, align 2, !tbaa !98
  %58 = add nuw nsw i32 %.02935, 1
  %59 = load i16, ptr %17, align 2, !tbaa !80
  %60 = zext i16 %59 to i32
  %61 = icmp samesign ult i32 %58, %60
  br i1 %61, label %.lr.ph, label %.critedge, !llvm.loop !113

.critedge:                                        ; preds = %.lr.ph, %30
  %.028.lcssa = phi i16 [ %.02836, %.lr.ph ], [ %.1, %30 ]
  %62 = load i16, ptr %2, align 2, !tbaa !98
  %63 = icmp ult i16 %62, %.028.lcssa
  br i1 %63, label %64, label %.critedge.thread

64:                                               ; preds = %.critedge
  store i16 %.028.lcssa, ptr %2, align 2, !tbaa !98
  br label %.critedge.thread

.critedge.thread:                                 ; preds = %.preheader, %64, %.critedge
  %65 = add nuw nsw i32 %.039, 1
  %exitcond.not = icmp eq i32 %65, %.
  br i1 %exitcond.not, label %._crit_edge, label %.preheader, !llvm.loop !114
}